
homework.elf:     file format elf32-littleriscv


Disassembly of section .text:

00001000 <_start>:
    1000:	00001137          	lui	sp,0x1
    1004:	400000ef          	jal	1404 <main>

00001008 <loop>:
    1008:	0000006f          	j	1008 <loop>

0000100c <enable_interrupt>:
    100c:	00000297          	auipc	t0,0x0
    1010:	02828293          	add	t0,t0,40 # 1034 <__trap_entry>
    1014:	30529373          	csrrw	t1,mtvec,t0
    1018:	000022b7          	lui	t0,0x2
    101c:	88828293          	add	t0,t0,-1912 # 1888 <_end+0x39c>
    1020:	30029373          	csrrw	t1,mstatus,t0
    1024:	00008067          	ret

00001028 <get_epc>:
    1028:	34102573          	csrr	a0,mepc
    102c:	00008067          	ret

00001030 <tran_handler>:
    1030:	00008067          	ret

00001034 <__trap_entry>:
    1034:	34011073          	csrw	mscratch,sp
    1038:	f8010113          	add	sp,sp,-128 # f80 <_start-0x80>
    103c:	00112223          	sw	ra,4(sp)
    1040:	00312623          	sw	gp,12(sp)
    1044:	00412823          	sw	tp,16(sp)
    1048:	00512a23          	sw	t0,20(sp)
    104c:	00612c23          	sw	t1,24(sp)
    1050:	00712e23          	sw	t2,28(sp)
    1054:	02412023          	sw	tp,32(sp)
    1058:	02912223          	sw	s1,36(sp)
    105c:	02a12423          	sw	a0,40(sp)
    1060:	02b12623          	sw	a1,44(sp)
    1064:	02c12823          	sw	a2,48(sp)
    1068:	02d12a23          	sw	a3,52(sp)
    106c:	02e12c23          	sw	a4,56(sp)
    1070:	02f12e23          	sw	a5,60(sp)
    1074:	05012023          	sw	a6,64(sp)
    1078:	05112223          	sw	a7,68(sp)
    107c:	05212423          	sw	s2,72(sp)
    1080:	05312623          	sw	s3,76(sp)
    1084:	05412823          	sw	s4,80(sp)
    1088:	05512a23          	sw	s5,84(sp)
    108c:	05612c23          	sw	s6,88(sp)
    1090:	05712e23          	sw	s7,92(sp)
    1094:	07812023          	sw	s8,96(sp)
    1098:	07912223          	sw	s9,100(sp)
    109c:	07a12423          	sw	s10,104(sp)
    10a0:	07b12623          	sw	s11,108(sp)
    10a4:	07c12823          	sw	t3,112(sp)
    10a8:	07d12a23          	sw	t4,116(sp)
    10ac:	07e12c23          	sw	t5,120(sp)
    10b0:	07f12e23          	sw	t6,124(sp)
    10b4:	34102573          	csrr	a0,mepc
    10b8:	342025f3          	csrr	a1,mcause
    10bc:	00000097          	auipc	ra,0x0
    10c0:	000000e7          	jalr	zero # 0 <_start-0x1000>
    10c4:	00412083          	lw	ra,4(sp)
    10c8:	00c12183          	lw	gp,12(sp)
    10cc:	01012203          	lw	tp,16(sp)
    10d0:	01412283          	lw	t0,20(sp)
    10d4:	01812303          	lw	t1,24(sp)
    10d8:	01c12383          	lw	t2,28(sp)
    10dc:	02012203          	lw	tp,32(sp)
    10e0:	02412483          	lw	s1,36(sp)
    10e4:	02812503          	lw	a0,40(sp)
    10e8:	02c12583          	lw	a1,44(sp)
    10ec:	03012603          	lw	a2,48(sp)
    10f0:	03412683          	lw	a3,52(sp)
    10f4:	03812703          	lw	a4,56(sp)
    10f8:	03c12783          	lw	a5,60(sp)
    10fc:	04012803          	lw	a6,64(sp)
    1100:	04412883          	lw	a7,68(sp)
    1104:	04812903          	lw	s2,72(sp)
    1108:	04c12983          	lw	s3,76(sp)
    110c:	05012a03          	lw	s4,80(sp)
    1110:	05412a83          	lw	s5,84(sp)
    1114:	05812b03          	lw	s6,88(sp)
    1118:	05c12b83          	lw	s7,92(sp)
    111c:	06012c03          	lw	s8,96(sp)
    1120:	06412c83          	lw	s9,100(sp)
    1124:	06812d03          	lw	s10,104(sp)
    1128:	06c12d83          	lw	s11,108(sp)
    112c:	07012e03          	lw	t3,112(sp)
    1130:	07412e83          	lw	t4,116(sp)
    1134:	07812f03          	lw	t5,120(sp)
    1138:	07c12f83          	lw	t6,124(sp)
    113c:	34002173          	csrr	sp,mscratch
    1140:	30200073          	mret

00001144 <count_leading_zeros>:
    1144:	fe010113          	add	sp,sp,-32
    1148:	00812e23          	sw	s0,28(sp)
    114c:	02010413          	add	s0,sp,32
    1150:	fea42623          	sw	a0,-20(s0)
    1154:	feb42423          	sw	a1,-24(s0)
    1158:	fe842783          	lw	a5,-24(s0)
    115c:	00078a63          	beqz	a5,1170 <count_leading_zeros+0x2c>
    1160:	fe842783          	lw	a5,-24(s0)
    1164:	fef42623          	sw	a5,-20(s0)
    1168:	02000793          	li	a5,32
    116c:	fef42423          	sw	a5,-24(s0)
    1170:	fec42783          	lw	a5,-20(s0)
    1174:	0017d793          	srl	a5,a5,0x1
    1178:	fec42703          	lw	a4,-20(s0)
    117c:	00f767b3          	or	a5,a4,a5
    1180:	fef42623          	sw	a5,-20(s0)
    1184:	fec42783          	lw	a5,-20(s0)
    1188:	0027d793          	srl	a5,a5,0x2
    118c:	fec42703          	lw	a4,-20(s0)
    1190:	00f767b3          	or	a5,a4,a5
    1194:	fef42623          	sw	a5,-20(s0)
    1198:	fec42783          	lw	a5,-20(s0)
    119c:	0047d793          	srl	a5,a5,0x4
    11a0:	fec42703          	lw	a4,-20(s0)
    11a4:	00f767b3          	or	a5,a4,a5
    11a8:	fef42623          	sw	a5,-20(s0)
    11ac:	fec42783          	lw	a5,-20(s0)
    11b0:	0087d793          	srl	a5,a5,0x8
    11b4:	fec42703          	lw	a4,-20(s0)
    11b8:	00f767b3          	or	a5,a4,a5
    11bc:	fef42623          	sw	a5,-20(s0)
    11c0:	fec42783          	lw	a5,-20(s0)
    11c4:	0107d793          	srl	a5,a5,0x10
    11c8:	fec42703          	lw	a4,-20(s0)
    11cc:	00f767b3          	or	a5,a4,a5
    11d0:	fef42623          	sw	a5,-20(s0)
    11d4:	fec42783          	lw	a5,-20(s0)
    11d8:	0017d713          	srl	a4,a5,0x1
    11dc:	555557b7          	lui	a5,0x55555
    11e0:	55578793          	add	a5,a5,1365 # 55555555 <_end+0x55554069>
    11e4:	00f777b3          	and	a5,a4,a5
    11e8:	fec42703          	lw	a4,-20(s0)
    11ec:	40f707b3          	sub	a5,a4,a5
    11f0:	fef42623          	sw	a5,-20(s0)
    11f4:	fec42783          	lw	a5,-20(s0)
    11f8:	0027d713          	srl	a4,a5,0x2
    11fc:	333337b7          	lui	a5,0x33333
    1200:	33378793          	add	a5,a5,819 # 33333333 <_end+0x33331e47>
    1204:	00f77733          	and	a4,a4,a5
    1208:	fec42683          	lw	a3,-20(s0)
    120c:	333337b7          	lui	a5,0x33333
    1210:	33378793          	add	a5,a5,819 # 33333333 <_end+0x33331e47>
    1214:	00f6f7b3          	and	a5,a3,a5
    1218:	00f707b3          	add	a5,a4,a5
    121c:	fef42623          	sw	a5,-20(s0)
    1220:	fec42783          	lw	a5,-20(s0)
    1224:	0047d713          	srl	a4,a5,0x4
    1228:	fec42783          	lw	a5,-20(s0)
    122c:	00f70733          	add	a4,a4,a5
    1230:	0f0f17b7          	lui	a5,0xf0f1
    1234:	f0f78793          	add	a5,a5,-241 # f0f0f0f <_end+0xf0efa23>
    1238:	00f777b3          	and	a5,a4,a5
    123c:	fef42623          	sw	a5,-20(s0)
    1240:	fec42783          	lw	a5,-20(s0)
    1244:	0087d793          	srl	a5,a5,0x8
    1248:	fec42703          	lw	a4,-20(s0)
    124c:	00f707b3          	add	a5,a4,a5
    1250:	fef42623          	sw	a5,-20(s0)
    1254:	fec42783          	lw	a5,-20(s0)
    1258:	0107d793          	srl	a5,a5,0x10
    125c:	fec42703          	lw	a4,-20(s0)
    1260:	00f707b3          	add	a5,a4,a5
    1264:	fef42623          	sw	a5,-20(s0)
    1268:	fec42783          	lw	a5,-20(s0)
    126c:	07f7f713          	and	a4,a5,127
    1270:	fe842783          	lw	a5,-24(s0)
    1274:	00f707b3          	add	a5,a4,a5
    1278:	04000713          	li	a4,64
    127c:	40f707b3          	sub	a5,a4,a5
    1280:	00078513          	mv	a0,a5
    1284:	01c12403          	lw	s0,28(sp)
    1288:	02010113          	add	sp,sp,32
    128c:	00008067          	ret

00001290 <HammingDistance>:
    1290:	fd010113          	add	sp,sp,-48
    1294:	02112623          	sw	ra,44(sp)
    1298:	02812423          	sw	s0,40(sp)
    129c:	03010413          	add	s0,sp,48
    12a0:	fca42e23          	sw	a0,-36(s0)
    12a4:	fcb42c23          	sw	a1,-40(s0)
    12a8:	fcc42a23          	sw	a2,-44(s0)
    12ac:	fcd42823          	sw	a3,-48(s0)
    12b0:	fe042623          	sw	zero,-20(s0)
    12b4:	fe042423          	sw	zero,-24(s0)
    12b8:	fe042223          	sw	zero,-28(s0)
    12bc:	fd842703          	lw	a4,-40(s0)
    12c0:	fd042783          	lw	a5,-48(s0)
    12c4:	00e7fc63          	bgeu	a5,a4,12dc <HammingDistance+0x4c>
    12c8:	fdc42783          	lw	a5,-36(s0)
    12cc:	fef42423          	sw	a5,-24(s0)
    12d0:	fd842783          	lw	a5,-40(s0)
    12d4:	fef42223          	sw	a5,-28(s0)
    12d8:	0540006f          	j	132c <HammingDistance+0x9c>
    12dc:	fd842703          	lw	a4,-40(s0)
    12e0:	fd042783          	lw	a5,-48(s0)
    12e4:	00f77c63          	bgeu	a4,a5,12fc <HammingDistance+0x6c>
    12e8:	fd442783          	lw	a5,-44(s0)
    12ec:	fef42423          	sw	a5,-24(s0)
    12f0:	fd042783          	lw	a5,-48(s0)
    12f4:	fef42223          	sw	a5,-28(s0)
    12f8:	0340006f          	j	132c <HammingDistance+0x9c>
    12fc:	fdc42703          	lw	a4,-36(s0)
    1300:	fd442783          	lw	a5,-44(s0)
    1304:	00e7fc63          	bgeu	a5,a4,131c <HammingDistance+0x8c>
    1308:	fdc42783          	lw	a5,-36(s0)
    130c:	fef42423          	sw	a5,-24(s0)
    1310:	fd842783          	lw	a5,-40(s0)
    1314:	fef42223          	sw	a5,-28(s0)
    1318:	0140006f          	j	132c <HammingDistance+0x9c>
    131c:	fd442783          	lw	a5,-44(s0)
    1320:	fef42423          	sw	a5,-24(s0)
    1324:	fd042783          	lw	a5,-48(s0)
    1328:	fef42223          	sw	a5,-28(s0)
    132c:	fe842783          	lw	a5,-24(s0)
    1330:	fe442703          	lw	a4,-28(s0)
    1334:	00070593          	mv	a1,a4
    1338:	00078513          	mv	a0,a5
    133c:	e09ff0ef          	jal	1144 <count_leading_zeros>
    1340:	00050713          	mv	a4,a0
    1344:	04000793          	li	a5,64
    1348:	40e787b3          	sub	a5,a5,a4
    134c:	fef42023          	sw	a5,-32(s0)
    1350:	0440006f          	j	1394 <HammingDistance+0x104>
    1354:	fd842703          	lw	a4,-40(s0)
    1358:	fd042783          	lw	a5,-48(s0)
    135c:	00f747b3          	xor	a5,a4,a5
    1360:	0017f713          	and	a4,a5,1
    1364:	fec42783          	lw	a5,-20(s0)
    1368:	00f707b3          	add	a5,a4,a5
    136c:	fef42623          	sw	a5,-20(s0)
    1370:	fd842783          	lw	a5,-40(s0)
    1374:	0017d793          	srl	a5,a5,0x1
    1378:	fcf42c23          	sw	a5,-40(s0)
    137c:	fd042783          	lw	a5,-48(s0)
    1380:	0017d793          	srl	a5,a5,0x1
    1384:	fcf42823          	sw	a5,-48(s0)
    1388:	fe042783          	lw	a5,-32(s0)
    138c:	fff78793          	add	a5,a5,-1
    1390:	fef42023          	sw	a5,-32(s0)
    1394:	fe042703          	lw	a4,-32(s0)
    1398:	02000793          	li	a5,32
    139c:	fae7cce3          	blt	a5,a4,1354 <HammingDistance+0xc4>
    13a0:	0440006f          	j	13e4 <HammingDistance+0x154>
    13a4:	fdc42703          	lw	a4,-36(s0)
    13a8:	fd442783          	lw	a5,-44(s0)
    13ac:	00f747b3          	xor	a5,a4,a5
    13b0:	0017f713          	and	a4,a5,1
    13b4:	fec42783          	lw	a5,-20(s0)
    13b8:	00f707b3          	add	a5,a4,a5
    13bc:	fef42623          	sw	a5,-20(s0)
    13c0:	fdc42783          	lw	a5,-36(s0)
    13c4:	0017d793          	srl	a5,a5,0x1
    13c8:	fcf42e23          	sw	a5,-36(s0)
    13cc:	fd442783          	lw	a5,-44(s0)
    13d0:	0017d793          	srl	a5,a5,0x1
    13d4:	fcf42a23          	sw	a5,-44(s0)
    13d8:	fe042783          	lw	a5,-32(s0)
    13dc:	fff78793          	add	a5,a5,-1
    13e0:	fef42023          	sw	a5,-32(s0)
    13e4:	fe042783          	lw	a5,-32(s0)
    13e8:	faf04ee3          	bgtz	a5,13a4 <HammingDistance+0x114>
    13ec:	fec42783          	lw	a5,-20(s0)
    13f0:	00078513          	mv	a0,a5
    13f4:	02c12083          	lw	ra,44(sp)
    13f8:	02812403          	lw	s0,40(sp)
    13fc:	03010113          	add	sp,sp,48
    1400:	00008067          	ret

00001404 <main>:
    1404:	fc010113          	add	sp,sp,-64
    1408:	02112e23          	sw	ra,60(sp)
    140c:	02812c23          	sw	s0,56(sp)
    1410:	02912a23          	sw	s1,52(sp)
    1414:	04010413          	add	s0,sp,64
    1418:	001007b7          	lui	a5,0x100
    141c:	fef42623          	sw	a5,-20(s0)
    1420:	001307b7          	lui	a5,0x130
    1424:	fef42423          	sw	a5,-24(s0)
    1428:	001007b7          	lui	a5,0x100
    142c:	fff78793          	add	a5,a5,-1 # fffff <_end+0xfeb13>
    1430:	fef42223          	sw	a5,-28(s0)
    1434:	fe042023          	sw	zero,-32(s0)
    1438:	00100793          	li	a5,1
    143c:	fcf42e23          	sw	a5,-36(s0)
    1440:	00200793          	li	a5,2
    1444:	fcf42c23          	sw	a5,-40(s0)
    1448:	800007b7          	lui	a5,0x80000
    144c:	fff78793          	add	a5,a5,-1 # 7fffffff <_end+0x7fffeb13>
    1450:	fcf42a23          	sw	a5,-44(s0)
    1454:	ffe00793          	li	a5,-2
    1458:	fcf42823          	sw	a5,-48(s0)
    145c:	00200793          	li	a5,2
    1460:	fcf42623          	sw	a5,-52(s0)
    1464:	837027b7          	lui	a5,0x83702
    1468:	28f78793          	add	a5,a5,655 # 8370228f <_end+0x83700da3>
    146c:	fcf42423          	sw	a5,-56(s0)
    1470:	00200793          	li	a5,2
    1474:	fcf42223          	sw	a5,-60(s0)
    1478:	837027b7          	lui	a5,0x83702
    147c:	28f78793          	add	a5,a5,655 # 8370228f <_end+0x83700da3>
    1480:	fcf42023          	sw	a5,-64(s0)
    1484:	00400493          	li	s1,4
    1488:	fe042683          	lw	a3,-32(s0)
    148c:	fe442603          	lw	a2,-28(s0)
    1490:	fe842583          	lw	a1,-24(s0)
    1494:	fec42503          	lw	a0,-20(s0)
    1498:	df9ff0ef          	jal	1290 <HammingDistance>
    149c:	00050793          	mv	a5,a0
    14a0:	00f4a023          	sw	a5,0(s1)
    14a4:	00800493          	li	s1,8
    14a8:	fd042683          	lw	a3,-48(s0)
    14ac:	fd442603          	lw	a2,-44(s0)
    14b0:	fd842583          	lw	a1,-40(s0)
    14b4:	fdc42503          	lw	a0,-36(s0)
    14b8:	dd9ff0ef          	jal	1290 <HammingDistance>
    14bc:	00050793          	mv	a5,a0
    14c0:	00f4a023          	sw	a5,0(s1)
    14c4:	00c00493          	li	s1,12
    14c8:	fc042683          	lw	a3,-64(s0)
    14cc:	fc442603          	lw	a2,-60(s0)
    14d0:	fc842583          	lw	a1,-56(s0)
    14d4:	fcc42503          	lw	a0,-52(s0)
    14d8:	db9ff0ef          	jal	1290 <HammingDistance>
    14dc:	00050793          	mv	a5,a0
    14e0:	00f4a023          	sw	a5,0(s1)
    14e4:	00000013          	nop
    14e8:	ffdff06f          	j	14e4 <main+0xe0>
